target datalayout = "e-m:e-p270:32:32-p271:32:32-p272:64:64-i64:64-i128:128-f80:128-n8:16:32:64-S128"
target triple = "x86_64-pc-linux-gnu"

; Function Attrs: nounwind uwtable
define internal i32 @pg_eucjp_verifychar(ptr noundef %0, i32 noundef %1) #1 {
  %3 = alloca i32, align 4
  %4 = alloca ptr, align 8
  %5 = alloca i32, align 4
  %6 = alloca i32, align 4
  %7 = alloca i8, align 1
  %8 = alloca i8, align 1
  %9 = alloca i32, align 4
  store ptr %0, ptr %4, align 8
  store i32 %1, ptr %5, align 4
  call void @llvm.lifetime.start.p0(i64 4, ptr %6) #7
  call void @llvm.lifetime.start.p0(i64 1, ptr %7) #7
  call void @llvm.lifetime.start.p0(i64 1, ptr %8) #7
  %10 = load ptr, ptr %4, align 8
  %11 = getelementptr inbounds nuw i8, ptr %10, i32 1
  store ptr %11, ptr %4, align 8
  %12 = load i8, ptr %10, align 1
  store i8 %12, ptr %7, align 1
  %13 = load i8, ptr %7, align 1
  %14 = zext i8 %13 to i32
  switch i32 %14, label %63 [
    i32 142, label %15
    i32 143, label %33
  ]

15:                                               ; preds = %2
  store i32 2, ptr %6, align 4
  %16 = load i32, ptr %6, align 4
  %17 = load i32, ptr %5, align 4
  %18 = icmp sgt i32 %16, %17
  br i1 %18, label %19, label %20

19:                                               ; preds = %15
  store i32 -1, ptr %3, align 4
  store i32 1, ptr %9, align 4
  br label %99

20:                                               ; preds = %15
  %21 = load ptr, ptr %4, align 8
  %22 = getelementptr inbounds nuw i8, ptr %21, i32 1
  store ptr %22, ptr %4, align 8
  %23 = load i8, ptr %21, align 1
  store i8 %23, ptr %8, align 1
  %24 = load i8, ptr %8, align 1
  %25 = zext i8 %24 to i32
  %26 = icmp slt i32 %25, 161
  br i1 %26, label %31, label %27

27:                                               ; preds = %20
  %28 = load i8, ptr %8, align 1
  %29 = zext i8 %28 to i32
  %30 = icmp sgt i32 %29, 223
  br i1 %30, label %31, label %32

31:                                               ; preds = %27, %20
  store i32 -1, ptr %3, align 4
  store i32 1, ptr %9, align 4
  br label %99

32:                                               ; preds = %27
  br label %97

33:                                               ; preds = %2
  store i32 3, ptr %6, align 4
  %34 = load i32, ptr %6, align 4
  %35 = load i32, ptr %5, align 4
  %36 = icmp sgt i32 %34, %35
  br i1 %36, label %37, label %38

37:                                               ; preds = %33
  store i32 -1, ptr %3, align 4
  store i32 1, ptr %9, align 4
  br label %99

38:                                               ; preds = %33
  %39 = load ptr, ptr %4, align 8
  %40 = getelementptr inbounds nuw i8, ptr %39, i32 1
  store ptr %40, ptr %4, align 8
  %41 = load i8, ptr %39, align 1
  store i8 %41, ptr %8, align 1
  %42 = load i8, ptr %8, align 1
  %43 = zext i8 %42 to i32
  %44 = icmp sge i32 %43, 161
  br i1 %44, label %45, label %49

45:                                               ; preds = %38
  %46 = load i8, ptr %8, align 1
  %47 = zext i8 %46 to i32
  %48 = icmp sle i32 %47, 254
  br i1 %48, label %50, label %49

49:                                               ; preds = %45, %38
  store i32 -1, ptr %3, align 4
  store i32 1, ptr %9, align 4
  br label %99

50:                                               ; preds = %45
  %51 = load ptr, ptr %4, align 8
  %52 = getelementptr inbounds nuw i8, ptr %51, i32 1
  store ptr %52, ptr %4, align 8
  %53 = load i8, ptr %51, align 1
  store i8 %53, ptr %8, align 1
  %54 = load i8, ptr %8, align 1
  %55 = zext i8 %54 to i32
  %56 = icmp sge i32 %55, 161
  br i1 %56, label %57, label %61

57:                                               ; preds = %50
  %58 = load i8, ptr %8, align 1
  %59 = zext i8 %58 to i32
  %60 = icmp sle i32 %59, 254
  br i1 %60, label %62, label %61

61:                                               ; preds = %57, %50
  store i32 -1, ptr %3, align 4
  store i32 1, ptr %9, align 4
  br label %99

62:                                               ; preds = %57
  br label %97

63:                                               ; preds = %2
  %64 = load i8, ptr %7, align 1
  %65 = zext i8 %64 to i32
  %66 = and i32 %65, 128
  %67 = icmp ne i32 %66, 0
  br i1 %67, label %68, label %95

68:                                               ; preds = %63
  store i32 2, ptr %6, align 4
  %69 = load i32, ptr %6, align 4
  %70 = load i32, ptr %5, align 4
  %71 = icmp sgt i32 %69, %70
  br i1 %71, label %72, label %73

72:                                               ; preds = %68
  store i32 -1, ptr %3, align 4
  store i32 1, ptr %9, align 4
  br label %99

73:                                               ; preds = %68
  %74 = load i8, ptr %7, align 1
  %75 = zext i8 %74 to i32
  %76 = icmp sge i32 %75, 161
  br i1 %76, label %77, label %81

77:                                               ; preds = %73
  %78 = load i8, ptr %7, align 1
  %79 = zext i8 %78 to i32
  %80 = icmp sle i32 %79, 254
  br i1 %80, label %82, label %81

81:                                               ; preds = %77, %73
  store i32 -1, ptr %3, align 4
  store i32 1, ptr %9, align 4
  br label %99

82:                                               ; preds = %77
  %83 = load ptr, ptr %4, align 8
  %84 = getelementptr inbounds nuw i8, ptr %83, i32 1
  store ptr %84, ptr %4, align 8
  %85 = load i8, ptr %83, align 1
  store i8 %85, ptr %8, align 1
  %86 = load i8, ptr %8, align 1
  %87 = zext i8 %86 to i32
  %88 = icmp sge i32 %87, 161
  br i1 %88, label %89, label %93

89:                                               ; preds = %82
  %90 = load i8, ptr %8, align 1
  %91 = zext i8 %90 to i32
  %92 = icmp sle i32 %91, 254
  br i1 %92, label %94, label %93

93:                                               ; preds = %89, %82
  store i32 -1, ptr %3, align 4
  store i32 1, ptr %9, align 4
  br label %99

94:                                               ; preds = %89
  br label %96

95:                                               ; preds = %63
  store i32 1, ptr %6, align 4
  br label %96

96:                                               ; preds = %95, %94
  br label %97

97:                                               ; preds = %96, %62, %32
  %98 = load i32, ptr %6, align 4
  store i32 %98, ptr %3, align 4
  store i32 1, ptr %9, align 4
  br label %99

99:                                               ; preds = %97, %93, %81, %72, %61, %49, %37, %31, %19
  call void @llvm.lifetime.end.p0(i64 1, ptr %8) #7
  call void @llvm.lifetime.end.p0(i64 1, ptr %7) #7
  call void @llvm.lifetime.end.p0(i64 4, ptr %6) #7
  %100 = load i32, ptr %3, align 4
  ret i32 %100
}