; Function Attrs: mustprogress nofree norecurse nosync nounwind willreturn memory(argmem: read) uwtable
define internal range(i32 -1, 4) i32 @pg_eucjp_verifychar(ptr noundef readonly captures(none) %0, i32 noundef %1) #0 {
  %3 = getelementptr inbounds nuw i8, ptr %0, i64 1
  %4 = load i8, ptr %0, align 1
  switch i8 %4, label %19 [
    i8 -114, label %5
    i8 -113, label %10
  ]

5:                                                ; preds = %2
  %6 = icmp slt i32 %1, 2
  br i1 %6, label %27, label %7

7:                                                ; preds = %5
  %8 = load i8, ptr %3, align 1
  %9 = add i8 %8, 32
  %or.cond = icmp ult i8 %9, -63
  br i1 %or.cond, label %27, label %26

10:                                               ; preds = %2
  %11 = icmp slt i32 %1, 3
  br i1 %11, label %27, label %12

12:                                               ; preds = %10
  %13 = load i8, ptr %3, align 1
  %14 = add i8 %13, 95
  %or.cond5 = icmp ult i8 %14, 94
  br i1 %or.cond5, label %15, label %27

15:                                               ; preds = %12
  %16 = getelementptr inbounds nuw i8, ptr %0, i64 2
  %17 = load i8, ptr %16, align 1
  %18 = add i8 %17, 95
  %or.cond8 = icmp ult i8 %18, 94
  br i1 %or.cond8, label %26, label %27

19:                                               ; preds = %2
  %.not = icmp sgt i8 %4, -1
  br i1 %.not, label %26, label %20

20:                                               ; preds = %19
  %21 = icmp sgt i32 %1, 1
  %22 = add nsw i8 %4, 95
  %or.cond11 = icmp ult i8 %22, 94
  %or.cond39 = select i1 %21, i1 %or.cond11, i1 false
  br i1 %or.cond39, label %23, label %27

23:                                               ; preds = %20
  %24 = load i8, ptr %3, align 1
  %25 = add i8 %24, 95
  %or.cond14 = icmp ult i8 %25, 94
  br i1 %or.cond14, label %26, label %27

26:                                               ; preds = %19, %23, %15, %7
  %.038 = phi i32 [ 2, %23 ], [ 3, %15 ], [ 2, %7 ], [ 1, %19 ]
  br label %27

27:                                               ; preds = %23, %20, %15, %12, %10, %7, %5, %26
  %.0 = phi i32 [ %.038, %26 ], [ -1, %5 ], [ -1, %7 ], [ -1, %10 ], [ -1, %12 ], [ -1, %15 ], [ -1, %20 ], [ -1, %23 ]
  ret i32 %.0
}